; Function Attrs: mustprogress null_pointer_is_valid sspstrong uwtable
define noundef ptr @_ZN10ExtArgBool11createLabelEP7QWidget(ptr noundef readnone align 8 captures(none) dereferenceable_or_null(96) %0, ptr noundef %1) unnamed_addr #0 align 2 personality ptr @__gxx_personality_v0 {
  %3 = tail call noalias noundef dereferenceable_or_null(40) ptr @_Znwm(i64 noundef 40) #27
  invoke void @_ZN7QWidgetC1EPS_6QFlagsIN2Qt10WindowTypeEE(ptr noundef align 8 dereferenceable_or_null(40) %3, ptr noundef %1, i32 0)
          to label %4 unwind label %5

4:                                                ; preds = %2
  ret ptr %3

5:                                                ; preds = %2
  %6 = landingpad { ptr, i32 }
          cleanup
  tail call void @_ZdlPvm(ptr noundef %3, i64 noundef 40) #28
  resume { ptr, i32 } %6
}